target datalayout = "e-m:e-p270:32:32-p271:32:32-p272:64:64-i64:64-i128:128-f80:128-n8:16:32:64-S128"
target triple = "x86_64-pc-linux-gnu"

%struct._address = type { i32, i32, ptr, ptr }
%struct.conversation_element = type { i32, %union.anon }
%union.anon = type { %struct._address }

; Function Attrs: nounwind null_pointer_is_valid sspstrong uwtable
define i32 @conversation_key_port1(ptr noundef %0) #4 {
  %2 = alloca ptr, align 8
  %3 = alloca i32, align 4
  store ptr %0, ptr %2, align 8
  call void @llvm.lifetime.start.p0(i64 4, ptr %3) #12
  store i32 0, ptr %3, align 4
  %4 = load ptr, ptr %2, align 8
  %5 = getelementptr %struct.conversation_element, ptr %4, i64 0
  %6 = getelementptr inbounds nuw %struct.conversation_element, ptr %5, i32 0, i32 0
  %7 = load i32, ptr %6, align 8
  %8 = icmp eq i32 %7, 1
  br i1 %8, label %9, label %20

9:                                                ; preds = %1
  %10 = load ptr, ptr %2, align 8
  %11 = getelementptr %struct.conversation_element, ptr %10, i64 1
  %12 = getelementptr inbounds nuw %struct.conversation_element, ptr %11, i32 0, i32 0
  %13 = load i32, ptr %12, align 8
  %14 = icmp eq i32 %13, 2
  br i1 %14, label %15, label %20

15:                                               ; preds = %9
  %16 = load ptr, ptr %2, align 8
  %17 = getelementptr %struct.conversation_element, ptr %16, i64 1
  %18 = getelementptr inbounds nuw %struct.conversation_element, ptr %17, i32 0, i32 1
  %19 = load i32, ptr %18, align 8
  store i32 %19, ptr %3, align 4
  br label %20

20:                                               ; preds = %15, %9, %1
  %21 = load i32, ptr %3, align 4
  call void @llvm.lifetime.end.p0(i64 4, ptr %3) #12
  ret i32 %21
}