; Function Attrs: mustprogress nofree norecurse nosync nounwind null_pointer_is_valid sspstrong willreturn memory(argmem: read) uwtable
define i32 @conversation_key_port1(ptr noundef readonly captures(none) %0) local_unnamed_addr #12 {
  %2 = load i32, ptr %0, align 8
  %3 = icmp eq i32 %2, 1
  br i1 %3, label %4, label %11

4:                                                ; preds = %1
  %5 = getelementptr i8, ptr %0, i64 32
  %6 = load i32, ptr %5, align 8
  %7 = icmp eq i32 %6, 2
  br i1 %7, label %8, label %11

8:                                                ; preds = %4
  %9 = getelementptr i8, ptr %0, i64 40
  %10 = load i32, ptr %9, align 8
  br label %11

11:                                               ; preds = %8, %4, %1
  %.0 = phi i32 [ %10, %8 ], [ 0, %4 ], [ 0, %1 ]
  ret i32 %.0
}